target datalayout = "e-m:e-p270:32:32-p271:32:32-p272:64:64-i64:64-i128:128-f80:128-n8:16:32:64-S128"
target triple = "x86_64-pc-linux-gnu"

@.str.360 = private unnamed_addr constant [46 x i8] c"../cpython/Modules/_testlimitedcapi/unicode.c\00", align 1
@.str.363 = private unnamed_addr constant [3 x i8] c"OO\00", align 1
@.str.367 = private unnamed_addr constant [17 x i8] c"PyErr_Occurred()\00", align 1
@.str.368 = private unnamed_addr constant [18 x i8] c"!PyErr_Occurred()\00", align 1
@__PRETTY_FUNCTION__.unicode_equal = private unnamed_addr constant [48 x i8] c"PyObject *unicode_equal(PyObject *, PyObject *)\00", align 1

; Function Attrs: nounwind uwtable
define internal ptr @unicode_equal(ptr noundef %0, ptr noundef %1) #0 {
  %3 = alloca ptr, align 8
  %4 = alloca ptr, align 8
  %5 = alloca ptr, align 8
  %6 = alloca ptr, align 8
  %7 = alloca ptr, align 8
  %8 = alloca i32, align 4
  %9 = alloca i32, align 4
  store ptr %0, ptr %4, align 8, !tbaa !3
  store ptr %1, ptr %5, align 8, !tbaa !3
  call void @llvm.lifetime.start.p0(i64 8, ptr %6) #7
  call void @llvm.lifetime.start.p0(i64 8, ptr %7) #7
  %10 = load ptr, ptr %5, align 8, !tbaa !3
  %11 = call i32 (ptr, ptr, ...) @PyArg_ParseTuple(ptr noundef %10, ptr noundef @.str.363, ptr noundef %6, ptr noundef %7)
  %12 = icmp ne i32 %11, 0
  br i1 %12, label %14, label %13

13:                                               ; preds = %2
  store ptr null, ptr %3, align 8
  store i32 1, ptr %8, align 4
  br label %57

14:                                               ; preds = %2
  br label %15

15:                                               ; preds = %14
  %16 = load ptr, ptr %6, align 8, !tbaa !3
  %17 = call ptr @Py_GetConstantBorrowed(i32 noundef 0)
  %18 = icmp eq ptr %16, %17
  br i1 %18, label %19, label %20

19:                                               ; preds = %15
  store ptr null, ptr %6, align 8, !tbaa !3
  br label %20

20:                                               ; preds = %19, %15
  br label %21

21:                                               ; preds = %20
  br label %22

22:                                               ; preds = %21
  br label %23

23:                                               ; preds = %22
  %24 = load ptr, ptr %7, align 8, !tbaa !3
  %25 = call ptr @Py_GetConstantBorrowed(i32 noundef 0)
  %26 = icmp eq ptr %24, %25
  br i1 %26, label %27, label %28

27:                                               ; preds = %23
  store ptr null, ptr %7, align 8, !tbaa !3
  br label %28

28:                                               ; preds = %27, %23
  br label %29

29:                                               ; preds = %28
  br label %30

30:                                               ; preds = %29
  br label %31

31:                                               ; preds = %30
  call void @llvm.lifetime.start.p0(i64 4, ptr %9) #7
  %32 = load ptr, ptr %6, align 8, !tbaa !3
  %33 = load ptr, ptr %7, align 8, !tbaa !3
  %34 = call i32 @PyUnicode_Equal(ptr noundef %32, ptr noundef %33)
  store i32 %34, ptr %9, align 4, !tbaa !10
  %35 = load i32, ptr %9, align 4, !tbaa !10
  %36 = icmp eq i32 %35, -1
  br i1 %36, label %37, label %44

37:                                               ; preds = %31
  %38 = call ptr @PyErr_Occurred()
  %39 = icmp ne ptr %38, null
  br i1 %39, label %40, label %41

40:                                               ; preds = %37
  br label %43

41:                                               ; preds = %37
  call void @__assert_fail(ptr noundef @.str.367, ptr noundef @.str.360, i32 noundef 1852, ptr noundef @__PRETTY_FUNCTION__.unicode_equal) #8
  unreachable

42:                                               ; No predecessors!
  br label %43

43:                                               ; preds = %42, %40
  store ptr null, ptr %3, align 8
  store i32 1, ptr %8, align 4
  br label %54

44:                                               ; preds = %31
  %45 = call ptr @PyErr_Occurred()
  %46 = icmp ne ptr %45, null
  br i1 %46, label %48, label %47

47:                                               ; preds = %44
  br label %50

48:                                               ; preds = %44
  call void @__assert_fail(ptr noundef @.str.368, ptr noundef @.str.360, i32 noundef 1852, ptr noundef @__PRETTY_FUNCTION__.unicode_equal) #8
  unreachable

49:                                               ; No predecessors!
  br label %50

50:                                               ; preds = %49, %47
  %51 = load i32, ptr %9, align 4, !tbaa !10
  %52 = sext i32 %51 to i64
  %53 = call ptr @PyLong_FromLong(i64 noundef %52)
  store ptr %53, ptr %3, align 8
  store i32 1, ptr %8, align 4
  br label %54

54:                                               ; preds = %50, %43
  call void @llvm.lifetime.end.p0(i64 4, ptr %9) #7
  br label %57

55:                                               ; No predecessors!
  br label %56

56:                                               ; preds = %55
  store i32 0, ptr %8, align 4
  br label %57

57:                                               ; preds = %56, %54, %13
  call void @llvm.lifetime.end.p0(i64 8, ptr %7) #7
  call void @llvm.lifetime.end.p0(i64 8, ptr %6) #7
  %58 = load i32, ptr %8, align 4
  switch i32 %58, label %61 [
    i32 0, label %59
    i32 1, label %59
  ]

59:                                               ; preds = %57, %57
  %60 = load ptr, ptr %3, align 8
  ret ptr %60

61:                                               ; preds = %57
  unreachable
}